target datalayout = "e-m:e-p270:32:32-p271:32:32-p272:64:64-i64:64-i128:128-f80:128-n8:16:32:64-S128"
target triple = "x86_64-pc-linux-gnu"

%struct.mock_srv_ctx = type { ptr, ptr, ptr, ptr, ptr, ptr, ptr, ptr, ptr, ptr, i32, ptr, i32, i32, i32 }

@.str = private unnamed_addr constant [35 x i8] c"../openssl/apps/lib/cmp_mock_srv.c\00", align 1
@__func__.ossl_cmp_mock_srv_set1_caPubsOut = private unnamed_addr constant [33 x i8] c"ossl_cmp_mock_srv_set1_caPubsOut\00", align 1

; Function Attrs: nounwind uwtable
define dso_local i32 @ossl_cmp_mock_srv_set1_caPubsOut(ptr noundef %0, ptr noundef %1) #0 {
  %3 = alloca i32, align 4
  %4 = alloca ptr, align 8
  %5 = alloca ptr, align 8
  %6 = alloca ptr, align 8
  %7 = alloca ptr, align 8
  %8 = alloca i32, align 4
  store ptr %0, ptr %4, align 8, !tbaa !4
  store ptr %1, ptr %5, align 8, !tbaa !25
  call void @llvm.lifetime.start.p0(i64 8, ptr %6) #5
  %9 = load ptr, ptr %4, align 8, !tbaa !4
  %10 = call ptr @OSSL_CMP_SRV_CTX_get0_custom_ctx(ptr noundef %9)
  store ptr %10, ptr %6, align 8, !tbaa !11
  call void @llvm.lifetime.start.p0(i64 8, ptr %7) #5
  store ptr null, ptr %7, align 8, !tbaa !25
  %11 = load ptr, ptr %6, align 8, !tbaa !11
  %12 = icmp eq ptr %11, null
  br i1 %12, label %13, label %14

13:                                               ; preds = %2
  call void @ERR_new()
  call void @ERR_set_debug(ptr noundef @.str, i32 noundef 146, ptr noundef @__func__.ossl_cmp_mock_srv_set1_caPubsOut)
  call void (i32, i32, ptr, ...) @ERR_set_error(i32 noundef 58, i32 noundef 103, ptr noundef null)
  store i32 0, ptr %3, align 4
  store i32 1, ptr %8, align 4
  br label %29

14:                                               ; preds = %2
  %15 = load ptr, ptr %5, align 8, !tbaa !25
  %16 = icmp ne ptr %15, null
  br i1 %16, label %17, label %22

17:                                               ; preds = %14
  %18 = load ptr, ptr %5, align 8, !tbaa !25
  %19 = call ptr @X509_chain_up_ref(ptr noundef %18)
  store ptr %19, ptr %7, align 8, !tbaa !25
  %20 = icmp eq ptr %19, null
  br i1 %20, label %21, label %22

21:                                               ; preds = %17
  store i32 0, ptr %3, align 4
  store i32 1, ptr %8, align 4
  br label %29

22:                                               ; preds = %17, %14
  %23 = load ptr, ptr %6, align 8, !tbaa !11
  %24 = getelementptr inbounds nuw %struct.mock_srv_ctx, ptr %23, i32 0, i32 5
  %25 = load ptr, ptr %24, align 8, !tbaa !27
  call void @OSSL_STACK_OF_X509_free(ptr noundef %25)
  %26 = load ptr, ptr %7, align 8, !tbaa !25
  %27 = load ptr, ptr %6, align 8, !tbaa !11
  %28 = getelementptr inbounds nuw %struct.mock_srv_ctx, ptr %27, i32 0, i32 5
  store ptr %26, ptr %28, align 8, !tbaa !27
  store i32 1, ptr %3, align 4
  store i32 1, ptr %8, align 4
  br label %29

29:                                               ; preds = %22, %21, %13
  call void @llvm.lifetime.end.p0(i64 8, ptr %7) #5
  call void @llvm.lifetime.end.p0(i64 8, ptr %6) #5
  %30 = load i32, ptr %3, align 4
  ret i32 %30
}